target datalayout = "e-m:e-p270:32:32-p271:32:32-p272:64:64-i64:64-i128:128-f80:128-n8:16:32:64-S128"
target triple = "x86_64-pc-linux-gnu"

%struct.timeval = type { i64, i64 }
%struct.evhttp = type { %struct.anon.9, %struct.boundq, %struct.httpcbq, %struct.evconq, %struct.evwsq, i32, i32, %struct.vhostsq, %struct.aliasq, ptr, %struct.timeval, %struct.timeval, i64, i64, i32, ptr, i32, ptr, ptr, ptr, ptr, ptr, ptr, ptr, ptr, ptr, ptr }
%struct.anon.9 = type { ptr, ptr }
%struct.boundq = type { ptr, ptr }
%struct.httpcbq = type { ptr, ptr }
%struct.evconq = type { ptr, ptr }
%struct.evwsq = type { ptr, ptr }
%struct.vhostsq = type { ptr, ptr }
%struct.aliasq = type { ptr, ptr }
%struct.evhttp_server_alias = type { %struct.anon.13, ptr }
%struct.anon.13 = type { ptr, ptr }

; Function Attrs: nounwind uwtable
define i32 @evhttp_remove_server_alias(ptr noundef %0, ptr noundef %1) #0 {
  %3 = alloca i32, align 4
  %4 = alloca ptr, align 8
  %5 = alloca ptr, align 8
  %6 = alloca ptr, align 8
  %7 = alloca i32, align 4
  store ptr %0, ptr %4, align 8
  store ptr %1, ptr %5, align 8
  call void @llvm.lifetime.start.p0(i64 8, ptr %6) #11
  %8 = load ptr, ptr %4, align 8
  %9 = getelementptr inbounds nuw %struct.evhttp, ptr %8, i32 0, i32 8
  %10 = getelementptr inbounds nuw %struct.aliasq, ptr %9, i32 0, i32 0
  %11 = load ptr, ptr %10, align 8
  store ptr %11, ptr %6, align 8
  br label %12

12:                                               ; preds = %64, %2
  %13 = load ptr, ptr %6, align 8
  %14 = icmp ne ptr %13, null
  br i1 %14, label %15, label %69

15:                                               ; preds = %12
  %16 = load ptr, ptr %6, align 8
  %17 = getelementptr inbounds nuw %struct.evhttp_server_alias, ptr %16, i32 0, i32 1
  %18 = load ptr, ptr %17, align 8
  %19 = load ptr, ptr %5, align 8
  %20 = call i32 @evutil_ascii_strcasecmp(ptr noundef %18, ptr noundef %19)
  %21 = icmp eq i32 %20, 0
  br i1 %21, label %22, label %63

22:                                               ; preds = %15
  br label %23

23:                                               ; preds = %22
  %24 = load ptr, ptr %6, align 8
  %25 = getelementptr inbounds nuw %struct.evhttp_server_alias, ptr %24, i32 0, i32 0
  %26 = getelementptr inbounds nuw %struct.anon.13, ptr %25, i32 0, i32 0
  %27 = load ptr, ptr %26, align 8
  %28 = icmp ne ptr %27, null
  br i1 %28, label %29, label %40

29:                                               ; preds = %23
  %30 = load ptr, ptr %6, align 8
  %31 = getelementptr inbounds nuw %struct.evhttp_server_alias, ptr %30, i32 0, i32 0
  %32 = getelementptr inbounds nuw %struct.anon.13, ptr %31, i32 0, i32 1
  %33 = load ptr, ptr %32, align 8
  %34 = load ptr, ptr %6, align 8
  %35 = getelementptr inbounds nuw %struct.evhttp_server_alias, ptr %34, i32 0, i32 0
  %36 = getelementptr inbounds nuw %struct.anon.13, ptr %35, i32 0, i32 0
  %37 = load ptr, ptr %36, align 8
  %38 = getelementptr inbounds nuw %struct.evhttp_server_alias, ptr %37, i32 0, i32 0
  %39 = getelementptr inbounds nuw %struct.anon.13, ptr %38, i32 0, i32 1
  store ptr %33, ptr %39, align 8
  br label %48

40:                                               ; preds = %23
  %41 = load ptr, ptr %6, align 8
  %42 = getelementptr inbounds nuw %struct.evhttp_server_alias, ptr %41, i32 0, i32 0
  %43 = getelementptr inbounds nuw %struct.anon.13, ptr %42, i32 0, i32 1
  %44 = load ptr, ptr %43, align 8
  %45 = load ptr, ptr %4, align 8
  %46 = getelementptr inbounds nuw %struct.evhttp, ptr %45, i32 0, i32 8
  %47 = getelementptr inbounds nuw %struct.aliasq, ptr %46, i32 0, i32 1
  store ptr %44, ptr %47, align 8
  br label %48

48:                                               ; preds = %40, %29
  %49 = load ptr, ptr %6, align 8
  %50 = getelementptr inbounds nuw %struct.evhttp_server_alias, ptr %49, i32 0, i32 0
  %51 = getelementptr inbounds nuw %struct.anon.13, ptr %50, i32 0, i32 0
  %52 = load ptr, ptr %51, align 8
  %53 = load ptr, ptr %6, align 8
  %54 = getelementptr inbounds nuw %struct.evhttp_server_alias, ptr %53, i32 0, i32 0
  %55 = getelementptr inbounds nuw %struct.anon.13, ptr %54, i32 0, i32 1
  %56 = load ptr, ptr %55, align 8
  store ptr %52, ptr %56, align 8
  br label %57

57:                                               ; preds = %48
  br label %58

58:                                               ; preds = %57
  %59 = load ptr, ptr %6, align 8
  %60 = getelementptr inbounds nuw %struct.evhttp_server_alias, ptr %59, i32 0, i32 1
  %61 = load ptr, ptr %60, align 8
  call void @event_mm_free_(ptr noundef %61)
  %62 = load ptr, ptr %6, align 8
  call void @event_mm_free_(ptr noundef %62)
  store i32 0, ptr %3, align 4
  store i32 1, ptr %7, align 4
  br label %70

63:                                               ; preds = %15
  br label %64

64:                                               ; preds = %63
  %65 = load ptr, ptr %6, align 8
  %66 = getelementptr inbounds nuw %struct.evhttp_server_alias, ptr %65, i32 0, i32 0
  %67 = getelementptr inbounds nuw %struct.anon.13, ptr %66, i32 0, i32 0
  %68 = load ptr, ptr %67, align 8
  store ptr %68, ptr %6, align 8
  br label %12, !llvm.loop !28

69:                                               ; preds = %12
  store i32 -1, ptr %3, align 4
  store i32 1, ptr %7, align 4
  br label %70

70:                                               ; preds = %69, %58
  call void @llvm.lifetime.end.p0(i64 8, ptr %6) #11
  %71 = load i32, ptr %3, align 4
  ret i32 %71
}