; Function Attrs: nounwind uwtable
define range(i32 -1, 1) i32 @evhttp_remove_server_alias(ptr noundef captures(none) %0, ptr noundef %1) local_unnamed_addr #0 {
  %3 = getelementptr inbounds nuw i8, ptr %0, i64 104
  br label %4

4:                                                ; preds = %5, %2
  %.0.in = phi ptr [ %3, %2 ], [ %.0, %5 ]
  %.0 = load ptr, ptr %.0.in, align 8
  %.not = icmp eq ptr %.0, null
  br i1 %.not, label %.loopexit, label %5

5:                                                ; preds = %4
  %6 = getelementptr inbounds nuw i8, ptr %.0, i64 16
  %7 = load ptr, ptr %6, align 8
  %8 = tail call i32 @evutil_ascii_strcasecmp(ptr noundef %7, ptr noundef %1) #18
  %9 = icmp eq i32 %8, 0
  br i1 %9, label %10, label %4, !llvm.loop !29

10:                                               ; preds = %5
  %11 = getelementptr inbounds nuw i8, ptr %.0, i64 16
  %12 = load ptr, ptr %.0, align 8
  %.not16 = icmp eq ptr %12, null
  %13 = getelementptr inbounds nuw i8, ptr %.0, i64 8
  %14 = load ptr, ptr %13, align 8
  br i1 %.not16, label %17, label %15

15:                                               ; preds = %10
  %16 = getelementptr inbounds nuw i8, ptr %12, i64 8
  store ptr %14, ptr %16, align 8
  br label %19

17:                                               ; preds = %10
  %18 = getelementptr inbounds nuw i8, ptr %0, i64 112
  store ptr %14, ptr %18, align 8
  br label %19

19:                                               ; preds = %17, %15
  %20 = load ptr, ptr %.0, align 8
  store ptr %20, ptr %14, align 8
  %21 = load ptr, ptr %11, align 8
  tail call void @event_mm_free_(ptr noundef %21) #18
  tail call void @event_mm_free_(ptr noundef nonnull %.0) #18
  br label %.loopexit

.loopexit:                                        ; preds = %4, %19
  %.014 = phi i32 [ 0, %19 ], [ -1, %4 ]
  ret i32 %.014
}